; Function Attrs: mustprogress nofree norecurse nosync nounwind willreturn memory(read, argmem: readwrite, inaccessiblemem: none) uwtable
define hidden range(i32 0, 2) i32 @asn1_const_Finish(ptr noundef captures(none) %c) local_unnamed_addr #0 {
entry:
  %inf.i = getelementptr inbounds nuw i8, ptr %c, i64 16
  %0 = load i32, ptr %inf.i, align 8
  %cmp.i = icmp eq i32 %0, 33
  br i1 %cmp.i, label %land.lhs.true.i, label %if.end3.i

land.lhs.true.i:                                  ; preds = %entry
  %eos.i = getelementptr inbounds nuw i8, ptr %c, i64 8
  %1 = load i32, ptr %eos.i, align 8
  %tobool.not.i = icmp eq i32 %1, 0
  br i1 %tobool.not.i, label %if.then.i, label %if.end3.i

if.then.i:                                        ; preds = %land.lhs.true.i
  %slen.i = getelementptr inbounds nuw i8, ptr %c, i64 32
  %2 = load i64, ptr %slen.i, align 8
  %cmp.i.i.i = icmp slt i64 %2, 1
  br i1 %cmp.i.i.i, label %if.end3.i, label %if.else.i.i.i

if.else.i.i.i:                                    ; preds = %if.then.i
  %cmp1.not.i.i.i = icmp eq i64 %2, 1
  br i1 %cmp1.not.i.i.i, label %return.sink.split.i, label %land.lhs.true.i.i.i

land.lhs.true.i.i.i:                              ; preds = %if.else.i.i.i
  %3 = load ptr, ptr %c, align 8
  %4 = load i8, ptr %3, align 1
  %cmp2.i.i.i = icmp eq i8 %4, 0
  br i1 %cmp2.i.i.i, label %land.lhs.true4.i.i.i, label %return.sink.split.i

land.lhs.true4.i.i.i:                             ; preds = %land.lhs.true.i.i.i
  %arrayidx5.i.i.i = getelementptr inbounds nuw i8, ptr %3, i64 1
  %5 = load i8, ptr %arrayidx5.i.i.i, align 1
  %cmp7.i.i.i = icmp eq i8 %5, 0
  br i1 %cmp7.i.i.i, label %if.then9.i.i.i, label %return.sink.split.i

if.then9.i.i.i:                                   ; preds = %land.lhs.true4.i.i.i
  %add.ptr.i.i.i = getelementptr inbounds nuw i8, ptr %3, i64 2
  store ptr %add.ptr.i.i.i, ptr %c, align 8
  br label %if.end3.i

if.end3.i:                                        ; preds = %if.then9.i.i.i, %if.then.i, %land.lhs.true.i, %entry
  %slen4.i = getelementptr inbounds nuw i8, ptr %c, i64 32
  %6 = load i64, ptr %slen4.i, align 8
  %cmp5.not.i = icmp eq i64 %6, 0
  br i1 %cmp5.not.i, label %_asn1_Finish.exit, label %land.lhs.true6.i

land.lhs.true6.i:                                 ; preds = %if.end3.i
  %and.i = and i32 %0, 1
  %tobool8.not.i = icmp ne i32 %and.i, 0
  %cmp10.i = icmp sgt i64 %6, -1
  %or.cond.i = and i1 %tobool8.not.i, %cmp10.i
  br i1 %or.cond.i, label %_asn1_Finish.exit, label %return.sink.split.i

return.sink.split.i:                              ; preds = %land.lhs.true6.i, %land.lhs.true4.i.i.i, %land.lhs.true.i.i.i, %if.else.i.i.i
  %.sink.i = phi i32 [ 152, %if.else.i.i.i ], [ 152, %land.lhs.true.i.i.i ], [ 152, %land.lhs.true4.i.i.i ], [ 100, %land.lhs.true6.i ]
  %error16.i = getelementptr inbounds nuw i8, ptr %c, i64 12
  store i32 %.sink.i, ptr %error16.i, align 4
  br label %_asn1_Finish.exit

_asn1_Finish.exit:                                ; preds = %if.end3.i, %land.lhs.true6.i, %return.sink.split.i
  %retval.0.i = phi i32 [ 1, %if.end3.i ], [ 1, %land.lhs.true6.i ], [ 0, %return.sink.split.i ]
  ret i32 %retval.0.i
}